target datalayout = "e-m:e-p270:32:32-p271:32:32-p272:64:64-i64:64-i128:128-f80:128-n8:16:32:64-S128"
target triple = "x86_64-pc-linux-gnu"

; Function Attrs: inlinehint nounwind uwtable
define internal void @avg_tpel_pixels_mc20_c(ptr noundef %0, ptr noundef %1, i32 noundef %2, i32 noundef %3, i32 noundef %4) #1 {
  %6 = alloca ptr, align 8
  %7 = alloca ptr, align 8
  %8 = alloca i32, align 4
  %9 = alloca i32, align 4
  %10 = alloca i32, align 4
  %11 = alloca i32, align 4
  %12 = alloca i32, align 4
  store ptr %0, ptr %6, align 8, !tbaa !10
  store ptr %1, ptr %7, align 8, !tbaa !10
  store i32 %2, ptr %8, align 4, !tbaa !12
  store i32 %3, ptr %9, align 4, !tbaa !12
  store i32 %4, ptr %10, align 4, !tbaa !12
  call void @llvm.lifetime.start.p0(i64 4, ptr %11) #4
  call void @llvm.lifetime.start.p0(i64 4, ptr %12) #4
  store i32 0, ptr %11, align 4, !tbaa !12
  br label %13

13:                                               ; preds = %67, %5
  %14 = load i32, ptr %11, align 4, !tbaa !12
  %15 = load i32, ptr %10, align 4, !tbaa !12
  %16 = icmp slt i32 %14, %15
  br i1 %16, label %17, label %70

17:                                               ; preds = %13
  store i32 0, ptr %12, align 4, !tbaa !12
  br label %18

18:                                               ; preds = %55, %17
  %19 = load i32, ptr %12, align 4, !tbaa !12
  %20 = load i32, ptr %9, align 4, !tbaa !12
  %21 = icmp slt i32 %19, %20
  br i1 %21, label %22, label %58

22:                                               ; preds = %18
  %23 = load ptr, ptr %6, align 8, !tbaa !10
  %24 = load i32, ptr %12, align 4, !tbaa !12
  %25 = sext i32 %24 to i64
  %26 = getelementptr inbounds i8, ptr %23, i64 %25
  %27 = load i8, ptr %26, align 1, !tbaa !14
  %28 = zext i8 %27 to i32
  %29 = load ptr, ptr %7, align 8, !tbaa !10
  %30 = load i32, ptr %12, align 4, !tbaa !12
  %31 = sext i32 %30 to i64
  %32 = getelementptr inbounds i8, ptr %29, i64 %31
  %33 = load i8, ptr %32, align 1, !tbaa !14
  %34 = zext i8 %33 to i32
  %35 = load ptr, ptr %7, align 8, !tbaa !10
  %36 = load i32, ptr %12, align 4, !tbaa !12
  %37 = add nsw i32 %36, 1
  %38 = sext i32 %37 to i64
  %39 = getelementptr inbounds i8, ptr %35, i64 %38
  %40 = load i8, ptr %39, align 1, !tbaa !14
  %41 = zext i8 %40 to i32
  %42 = mul nsw i32 2, %41
  %43 = add nsw i32 %34, %42
  %44 = add nsw i32 %43, 1
  %45 = mul nsw i32 %44, 683
  %46 = ashr i32 %45, 11
  %47 = add nsw i32 %28, %46
  %48 = add nsw i32 %47, 1
  %49 = ashr i32 %48, 1
  %50 = trunc i32 %49 to i8
  %51 = load ptr, ptr %6, align 8, !tbaa !10
  %52 = load i32, ptr %12, align 4, !tbaa !12
  %53 = sext i32 %52 to i64
  %54 = getelementptr inbounds i8, ptr %51, i64 %53
  store i8 %50, ptr %54, align 1, !tbaa !14
  br label %55

55:                                               ; preds = %22
  %56 = load i32, ptr %12, align 4, !tbaa !12
  %57 = add nsw i32 %56, 1
  store i32 %57, ptr %12, align 4, !tbaa !12
  br label %18, !llvm.loop !34

58:                                               ; preds = %18
  %59 = load i32, ptr %8, align 4, !tbaa !12
  %60 = load ptr, ptr %7, align 8, !tbaa !10
  %61 = sext i32 %59 to i64
  %62 = getelementptr inbounds i8, ptr %60, i64 %61
  store ptr %62, ptr %7, align 8, !tbaa !10
  %63 = load i32, ptr %8, align 4, !tbaa !12
  %64 = load ptr, ptr %6, align 8, !tbaa !10
  %65 = sext i32 %63 to i64
  %66 = getelementptr inbounds i8, ptr %64, i64 %65
  store ptr %66, ptr %6, align 8, !tbaa !10
  br label %67

67:                                               ; preds = %58
  %68 = load i32, ptr %11, align 4, !tbaa !12
  %69 = add nsw i32 %68, 1
  store i32 %69, ptr %11, align 4, !tbaa !12
  br label %13, !llvm.loop !35

70:                                               ; preds = %13
  call void @llvm.lifetime.end.p0(i64 4, ptr %12) #4
  call void @llvm.lifetime.end.p0(i64 4, ptr %11) #4
  ret void
}