; Function Attrs: inlinehint nofree norecurse nosync nounwind memory(argmem: readwrite) uwtable
define internal void @avg_tpel_pixels_mc20_c(ptr noundef captures(none) %0, ptr noundef readonly captures(none) %1, i32 noundef %2, i32 noundef %3, i32 noundef %4) #1 {
  %6 = icmp sgt i32 %4, 0
  br i1 %6, label %.preheader.lr.ph, label %._crit_edge24

.preheader.lr.ph:                                 ; preds = %5
  %7 = icmp sgt i32 %3, 0
  %8 = sext i32 %2 to i64
  br i1 %7, label %.preheader.us.preheader, label %._crit_edge24

.preheader.us.preheader:                          ; preds = %.preheader.lr.ph
  %wide.trip.count = zext nneg i32 %3 to i64
  br label %.preheader.us

.preheader.us:                                    ; preds = %.preheader.us.preheader, %._crit_edge.us
  %.01723.us = phi i32 [ %30, %._crit_edge.us ], [ 0, %.preheader.us.preheader ]
  %.01822.us = phi ptr [ %29, %._crit_edge.us ], [ %0, %.preheader.us.preheader ]
  %.01921.us = phi ptr [ %28, %._crit_edge.us ], [ %1, %.preheader.us.preheader ]
  br label %9

9:                                                ; preds = %.preheader.us, %9
  %indvars.iv = phi i64 [ 0, %.preheader.us ], [ %indvars.iv.next, %9 ]
  %10 = getelementptr inbounds nuw i8, ptr %.01822.us, i64 %indvars.iv
  %11 = load i8, ptr %10, align 1, !tbaa !8
  %12 = zext i8 %11 to i32
  %13 = getelementptr inbounds nuw i8, ptr %.01921.us, i64 %indvars.iv
  %14 = load i8, ptr %13, align 1, !tbaa !8
  %15 = zext i8 %14 to i32
  %indvars.iv.next = add nuw nsw i64 %indvars.iv, 1
  %16 = getelementptr inbounds nuw i8, ptr %.01921.us, i64 %indvars.iv.next
  %17 = load i8, ptr %16, align 1, !tbaa !8
  %18 = zext i8 %17 to i32
  %19 = shl nuw nsw i32 %18, 1
  %20 = add nuw nsw i32 %19, %15
  %21 = mul nuw nsw i32 %20, 683
  %22 = add nuw nsw i32 %21, 683
  %23 = lshr i32 %22, 11
  %24 = add nuw nsw i32 %12, 1
  %25 = add nuw nsw i32 %24, %23
  %26 = lshr i32 %25, 1
  %27 = trunc nuw i32 %26 to i8
  store i8 %27, ptr %10, align 1, !tbaa !8
  %exitcond.not = icmp eq i64 %indvars.iv.next, %wide.trip.count
  br i1 %exitcond.not, label %._crit_edge.us, label %9, !llvm.loop !38

._crit_edge.us:                                   ; preds = %9
  %28 = getelementptr inbounds i8, ptr %.01921.us, i64 %8
  %29 = getelementptr inbounds i8, ptr %.01822.us, i64 %8
  %30 = add nuw nsw i32 %.01723.us, 1
  %exitcond27.not = icmp eq i32 %30, %4
  br i1 %exitcond27.not, label %._crit_edge24, label %.preheader.us, !llvm.loop !39

._crit_edge24:                                    ; preds = %._crit_edge.us, %.preheader.lr.ph, %5
  ret void
}